target datalayout = "e-m:e-p270:32:32-p271:32:32-p272:64:64-i64:64-i128:128-f80:128-n8:16:32:64-S128"
target triple = "x86_64-unknown-linux-gnu"

%"class.cvc5::internal::theory::TheoryEngineModule" = type { %"class.cvc5::internal::EnvObj", %"class.cvc5::internal::theory::OutputChannel", %"class.std::__cxx11::basic_string" }
%"class.cvc5::internal::EnvObj" = type { ptr, ptr }
%"class.cvc5::internal::theory::OutputChannel" = type <{ ptr, ptr, %"class.std::__cxx11::basic_string", %"class.cvc5::internal::theory::OutputChannel::Statistics", i32, [4 x i8] }>
%"class.cvc5::internal::theory::OutputChannel::Statistics" = type { %"class.cvc5::internal::IntStat", %"class.cvc5::internal::IntStat", %"class.cvc5::internal::IntStat", %"class.cvc5::internal::IntStat", %"class.cvc5::internal::IntStat", %"class.cvc5::internal::IntStat" }
%"class.cvc5::internal::IntStat" = type { %"class.cvc5::internal::ValueStat" }
%"class.cvc5::internal::ValueStat" = type { ptr }
%"class.std::__cxx11::basic_string" = type { %"struct.std::__cxx11::basic_string<char>::_Alloc_hider", i64, %union.anon }
%"struct.std::__cxx11::basic_string<char>::_Alloc_hider" = type { ptr }
%union.anon = type { i64, [8 x i8] }

@_ZN4cvc58internal6theory18TheoryEngineModule11d_idCounterE = hidden global i64 0, align 8

; Function Attrs: mustprogress nounwind uwtable
define linkonce_odr hidden void @_ZN4cvc58internal6EnvObjD2Ev(ptr noundef nonnull align 8 dereferenceable(16) %this) unnamed_addr #4 comdat align 2 {
entry:
  %this.addr = alloca ptr, align 8
  store ptr %this, ptr %this.addr, align 8
  ret void
}

; Function Attrs: mustprogress uwtable
define hidden void @_ZN4cvc58internal6theory18TheoryEngineModuleC2ERNS0_3EnvEPNS0_12TheoryEngineERKNSt7__cxx1112basic_stringIcSt11char_traitsIcESaIcEEE(ptr noundef nonnull align 8 dereferenceable(152) %this, ptr noundef nonnull align 8 dereferenceable(576) %env, ptr noundef %engine, ptr noundef nonnull align 8 dereferenceable(32) %name) unnamed_addr #5 align 2 personality ptr @__gxx_personality_v0 {
entry:
  %this.addr = alloca ptr, align 8
  %env.addr = alloca ptr, align 8
  %engine.addr = alloca ptr, align 8
  %name.addr = alloca ptr, align 8
  %exn.slot = alloca ptr, align 8
  %ehselector.slot = alloca i32, align 4
  store ptr %this, ptr %this.addr, align 8
  store ptr %env, ptr %env.addr, align 8
  store ptr %engine, ptr %engine.addr, align 8
  store ptr %name, ptr %name.addr, align 8
  %this1 = load ptr, ptr %this.addr, align 8
  %0 = load ptr, ptr %env.addr, align 8
  call void @_ZN4cvc58internal6EnvObjC2ERNS0_3EnvE(ptr noundef nonnull align 8 dereferenceable(16) %this1, ptr noundef nonnull align 8 dereferenceable(576) %0)
  store ptr getelementptr inbounds ({ [11 x ptr] }, ptr @_ZTVN4cvc58internal6theory18TheoryEngineModuleE, i32 0, i32 0, i32 2), ptr %this1, align 8
  %d_out = getelementptr inbounds %"class.cvc5::internal::theory::TheoryEngineModule", ptr %this1, i32 0, i32 1
  %call = invoke noundef nonnull align 8 dereferenceable(72) ptr @_ZNK4cvc58internal6EnvObj18statisticsRegistryEv(ptr noundef nonnull align 8 dereferenceable(16) %this1)
          to label %invoke.cont unwind label %lpad

invoke.cont:                                      ; preds = %entry
  %1 = load ptr, ptr %engine.addr, align 8
  %2 = load ptr, ptr %name.addr, align 8
  %3 = load i64, ptr @_ZN4cvc58internal6theory18TheoryEngineModule11d_idCounterE, align 8
  invoke void @_ZN4cvc58internal6theory13OutputChannelC1ERNS0_18StatisticsRegistryEPNS0_12TheoryEngineERKNSt7__cxx1112basic_stringIcSt11char_traitsIcESaIcEEEm(ptr noundef nonnull align 8 dereferenceable(100) %d_out, ptr noundef nonnull align 8 dereferenceable(72) %call, ptr noundef %1, ptr noundef nonnull align 8 dereferenceable(32) %2, i64 noundef %3)
          to label %invoke.cont2 unwind label %lpad

invoke.cont2:                                     ; preds = %invoke.cont
  %d_name = getelementptr inbounds %"class.cvc5::internal::theory::TheoryEngineModule", ptr %this1, i32 0, i32 2
  call void @_ZNSt7__cxx1112basic_stringIcSt11char_traitsIcESaIcEEC1Ev(ptr noundef nonnull align 8 dereferenceable(32) %d_name) #3
  %4 = load i64, ptr @_ZN4cvc58internal6theory18TheoryEngineModule11d_idCounterE, align 8
  %inc = add i64 %4, 1
  store i64 %inc, ptr @_ZN4cvc58internal6theory18TheoryEngineModule11d_idCounterE, align 8
  ret void

lpad:                                             ; preds = %invoke.cont, %entry
  %5 = landingpad { ptr, i32 }
          cleanup
  %6 = extractvalue { ptr, i32 } %5, 0
  store ptr %6, ptr %exn.slot, align 8
  %7 = extractvalue { ptr, i32 } %5, 1
  store i32 %7, ptr %ehselector.slot, align 4
  call void @_ZN4cvc58internal6EnvObjD2Ev(ptr noundef nonnull align 8 dereferenceable(16) %this1) #3
  br label %eh.resume

eh.resume:                                        ; preds = %lpad
  %exn = load ptr, ptr %exn.slot, align 8
  %sel = load i32, ptr %ehselector.slot, align 4
  %lpad.val = insertvalue { ptr, i32 } poison, ptr %exn, 0
  %lpad.val3 = insertvalue { ptr, i32 } %lpad.val, i32 %sel, 1
  resume { ptr, i32 } %lpad.val3
}