; Function Attrs: mustprogress uwtable
define hidden void @_ZN4cvc58internal6theory18TheoryEngineModuleC2ERNS0_3EnvEPNS0_12TheoryEngineERKNSt7__cxx1112basic_stringIcSt11char_traitsIcESaIcEEE(ptr noundef nonnull align 8 dereferenceable(152) %this, ptr noundef nonnull align 8 dereferenceable(576) %env, ptr noundef %engine, ptr noundef nonnull align 8 dereferenceable(32) %name) unnamed_addr #3 align 2 personality ptr @__gxx_personality_v0 {
entry:
  tail call void @_ZN4cvc58internal6EnvObjC2ERNS0_3EnvE(ptr noundef nonnull align 8 dereferenceable(16) %this, ptr noundef nonnull align 8 dereferenceable(576) %env)
  store ptr getelementptr inbounds ({ [11 x ptr] }, ptr @_ZTVN4cvc58internal6theory18TheoryEngineModuleE, i64 0, i32 0, i64 2), ptr %this, align 8
  %call = tail call noundef nonnull align 8 dereferenceable(72) ptr @_ZNK4cvc58internal6EnvObj18statisticsRegistryEv(ptr noundef nonnull align 8 dereferenceable(16) %this)
  %d_out = getelementptr inbounds i8, ptr %this, i64 16
  %0 = load i64, ptr @_ZN4cvc58internal6theory18TheoryEngineModule11d_idCounterE, align 8
  tail call void @_ZN4cvc58internal6theory13OutputChannelC1ERNS0_18StatisticsRegistryEPNS0_12TheoryEngineERKNSt7__cxx1112basic_stringIcSt11char_traitsIcESaIcEEEm(ptr noundef nonnull align 8 dereferenceable(100) %d_out, ptr noundef nonnull align 8 dereferenceable(72) %call, ptr noundef %engine, ptr noundef nonnull align 8 dereferenceable(32) %name, i64 noundef %0)
  %d_name = getelementptr inbounds i8, ptr %this, i64 120
  tail call void @_ZNSt7__cxx1112basic_stringIcSt11char_traitsIcESaIcEEC1Ev(ptr noundef nonnull align 8 dereferenceable(32) %d_name) #10
  %1 = load i64, ptr @_ZN4cvc58internal6theory18TheoryEngineModule11d_idCounterE, align 8
  %inc = add i64 %1, 1
  store i64 %inc, ptr @_ZN4cvc58internal6theory18TheoryEngineModule11d_idCounterE, align 8
  ret void
}